; Function Attrs: nounwind uwtable
define void @glfwSetWindowSize(ptr noundef %0, i32 noundef %1, i32 noundef %2) local_unnamed_addr #0 {
  %4 = load i32, ptr @_glfw, align 8, !tbaa !138
  %.not = icmp eq i32 %4, 0
  br i1 %.not, label %5, label %6

5:                                                ; preds = %3
  tail call void (i32, ptr, ...) @_glfwInputError(i32 noundef 65537, ptr noundef null) #7
  br label %10

6:                                                ; preds = %3
  %7 = getelementptr inbounds nuw i8, ptr %0, i64 52
  store i32 %1, ptr %7, align 4, !tbaa !152
  %8 = getelementptr inbounds nuw i8, ptr %0, i64 56
  store i32 %2, ptr %8, align 4, !tbaa !153
  %9 = load ptr, ptr getelementptr inbounds nuw (i8, ptr @_glfw, i64 328), align 8, !tbaa !231
  tail call void %9(ptr noundef %0, i32 noundef %1, i32 noundef %2) #7
  br label %10

10:                                               ; preds = %6, %5
  ret void
}